; Function Attrs: nounwind uwtable
define internal fastcc void @destroyFallbackDecorations(ptr noundef captures(none) initializes((1120, 1124)) %0) unnamed_addr #0 {
  %2 = getelementptr inbounds nuw i8, ptr %0, i64 1120
  store i32 0, ptr %2, align 8, !tbaa !162
  %3 = getelementptr inbounds nuw i8, ptr %0, i64 1136
  %4 = getelementptr inbounds nuw i8, ptr %0, i64 1144
  %5 = load ptr, ptr %4, align 8, !tbaa !261
  %.not.i = icmp eq ptr %5, null
  br i1 %.not.i, label %11, label %6

6:                                                ; preds = %1
  %7 = load ptr, ptr getelementptr inbounds nuw (i8, ptr @_glfw, i64 137528), align 8, !tbaa !136
  %8 = load ptr, ptr getelementptr inbounds nuw (i8, ptr @_glfw, i64 137520), align 8, !tbaa !93
  %9 = tail call i32 %8(ptr noundef nonnull %5) #20
  %10 = tail call ptr (ptr, i32, ptr, i32, i32, ...) %7(ptr noundef nonnull %5, i32 noundef 0, ptr noundef null, i32 noundef %9, i32 noundef 1) #20
  br label %11

11:                                               ; preds = %6, %1
  %12 = load ptr, ptr %3, align 8, !tbaa !262
  %.not11.i = icmp eq ptr %12, null
  br i1 %.not11.i, label %18, label %13

13:                                               ; preds = %11
  %14 = load ptr, ptr getelementptr inbounds nuw (i8, ptr @_glfw, i64 137528), align 8, !tbaa !136
  %15 = load ptr, ptr getelementptr inbounds nuw (i8, ptr @_glfw, i64 137520), align 8, !tbaa !93
  %16 = tail call i32 %15(ptr noundef nonnull %12) #20
  %17 = tail call ptr (ptr, i32, ptr, i32, i32, ...) %14(ptr noundef nonnull %12, i32 noundef 0, ptr noundef null, i32 noundef %16, i32 noundef 1) #20
  br label %18

18:                                               ; preds = %13, %11
  %19 = getelementptr inbounds nuw i8, ptr %0, i64 1152
  %20 = load ptr, ptr %19, align 8, !tbaa !263
  %.not12.i = icmp eq ptr %20, null
  br i1 %.not12.i, label %destroyFallbackEdge.exit, label %21

21:                                               ; preds = %18
  %22 = load ptr, ptr getelementptr inbounds nuw (i8, ptr @_glfw, i64 137528), align 8, !tbaa !136
  %23 = load ptr, ptr getelementptr inbounds nuw (i8, ptr @_glfw, i64 137520), align 8, !tbaa !93
  %24 = tail call i32 %23(ptr noundef nonnull %20) #20
  %25 = tail call ptr (ptr, i32, ptr, i32, i32, ...) %22(ptr noundef nonnull %20, i32 noundef 0, ptr noundef null, i32 noundef %24, i32 noundef 1) #20
  br label %destroyFallbackEdge.exit

destroyFallbackEdge.exit:                         ; preds = %18, %21
  tail call void @llvm.memset.p0.i64(ptr noundef nonnull align 8 dereferenceable(24) %3, i8 0, i64 24, i1 false)
  %26 = getelementptr inbounds nuw i8, ptr %0, i64 1160
  %27 = getelementptr inbounds nuw i8, ptr %0, i64 1168
  %28 = load ptr, ptr %27, align 8, !tbaa !261
  %.not.i5 = icmp eq ptr %28, null
  br i1 %.not.i5, label %34, label %29

29:                                               ; preds = %destroyFallbackEdge.exit
  %30 = load ptr, ptr getelementptr inbounds nuw (i8, ptr @_glfw, i64 137528), align 8, !tbaa !136
  %31 = load ptr, ptr getelementptr inbounds nuw (i8, ptr @_glfw, i64 137520), align 8, !tbaa !93
  %32 = tail call i32 %31(ptr noundef nonnull %28) #20
  %33 = tail call ptr (ptr, i32, ptr, i32, i32, ...) %30(ptr noundef nonnull %28, i32 noundef 0, ptr noundef null, i32 noundef %32, i32 noundef 1) #20
  br label %34

34:                                               ; preds = %29, %destroyFallbackEdge.exit
  %35 = load ptr, ptr %26, align 8, !tbaa !262
  %.not11.i6 = icmp eq ptr %35, null
  br i1 %.not11.i6, label %41, label %36

36:                                               ; preds = %34
  %37 = load ptr, ptr getelementptr inbounds nuw (i8, ptr @_glfw, i64 137528), align 8, !tbaa !136
  %38 = load ptr, ptr getelementptr inbounds nuw (i8, ptr @_glfw, i64 137520), align 8, !tbaa !93
  %39 = tail call i32 %38(ptr noundef nonnull %35) #20
  %40 = tail call ptr (ptr, i32, ptr, i32, i32, ...) %37(ptr noundef nonnull %35, i32 noundef 0, ptr noundef null, i32 noundef %39, i32 noundef 1) #20
  br label %41

41:                                               ; preds = %36, %34
  %42 = getelementptr inbounds nuw i8, ptr %0, i64 1176
  %43 = load ptr, ptr %42, align 8, !tbaa !263
  %.not12.i7 = icmp eq ptr %43, null
  br i1 %.not12.i7, label %destroyFallbackEdge.exit8, label %44

44:                                               ; preds = %41
  %45 = load ptr, ptr getelementptr inbounds nuw (i8, ptr @_glfw, i64 137528), align 8, !tbaa !136
  %46 = load ptr, ptr getelementptr inbounds nuw (i8, ptr @_glfw, i64 137520), align 8, !tbaa !93
  %47 = tail call i32 %46(ptr noundef nonnull %43) #20
  %48 = tail call ptr (ptr, i32, ptr, i32, i32, ...) %45(ptr noundef nonnull %43, i32 noundef 0, ptr noundef null, i32 noundef %47, i32 noundef 1) #20
  br label %destroyFallbackEdge.exit8

destroyFallbackEdge.exit8:                        ; preds = %41, %44
  tail call void @llvm.memset.p0.i64(ptr noundef nonnull align 8 dereferenceable(24) %26, i8 0, i64 24, i1 false)
  %49 = getelementptr inbounds nuw i8, ptr %0, i64 1184
  %50 = getelementptr inbounds nuw i8, ptr %0, i64 1192
  %51 = load ptr, ptr %50, align 8, !tbaa !261
  %.not.i9 = icmp eq ptr %51, null
  br i1 %.not.i9, label %57, label %52

52:                                               ; preds = %destroyFallbackEdge.exit8
  %53 = load ptr, ptr getelementptr inbounds nuw (i8, ptr @_glfw, i64 137528), align 8, !tbaa !136
  %54 = load ptr, ptr getelementptr inbounds nuw (i8, ptr @_glfw, i64 137520), align 8, !tbaa !93
  %55 = tail call i32 %54(ptr noundef nonnull %51) #20
  %56 = tail call ptr (ptr, i32, ptr, i32, i32, ...) %53(ptr noundef nonnull %51, i32 noundef 0, ptr noundef null, i32 noundef %55, i32 noundef 1) #20
  br label %57

57:                                               ; preds = %52, %destroyFallbackEdge.exit8
  %58 = load ptr, ptr %49, align 8, !tbaa !262
  %.not11.i10 = icmp eq ptr %58, null
  br i1 %.not11.i10, label %64, label %59

59:                                               ; preds = %57
  %60 = load ptr, ptr getelementptr inbounds nuw (i8, ptr @_glfw, i64 137528), align 8, !tbaa !136
  %61 = load ptr, ptr getelementptr inbounds nuw (i8, ptr @_glfw, i64 137520), align 8, !tbaa !93
  %62 = tail call i32 %61(ptr noundef nonnull %58) #20
  %63 = tail call ptr (ptr, i32, ptr, i32, i32, ...) %60(ptr noundef nonnull %58, i32 noundef 0, ptr noundef null, i32 noundef %62, i32 noundef 1) #20
  br label %64

64:                                               ; preds = %59, %57
  %65 = getelementptr inbounds nuw i8, ptr %0, i64 1200
  %66 = load ptr, ptr %65, align 8, !tbaa !263
  %.not12.i11 = icmp eq ptr %66, null
  br i1 %.not12.i11, label %destroyFallbackEdge.exit12, label %67

67:                                               ; preds = %64
  %68 = load ptr, ptr getelementptr inbounds nuw (i8, ptr @_glfw, i64 137528), align 8, !tbaa !136
  %69 = load ptr, ptr getelementptr inbounds nuw (i8, ptr @_glfw, i64 137520), align 8, !tbaa !93
  %70 = tail call i32 %69(ptr noundef nonnull %66) #20
  %71 = tail call ptr (ptr, i32, ptr, i32, i32, ...) %68(ptr noundef nonnull %66, i32 noundef 0, ptr noundef null, i32 noundef %70, i32 noundef 1) #20
  br label %destroyFallbackEdge.exit12

destroyFallbackEdge.exit12:                       ; preds = %64, %67
  tail call void @llvm.memset.p0.i64(ptr noundef nonnull align 8 dereferenceable(24) %49, i8 0, i64 24, i1 false)
  %72 = getelementptr inbounds nuw i8, ptr %0, i64 1208
  %73 = getelementptr inbounds nuw i8, ptr %0, i64 1216
  %74 = load ptr, ptr %73, align 8, !tbaa !261
  %.not.i13 = icmp eq ptr %74, null
  br i1 %.not.i13, label %80, label %75

75:                                               ; preds = %destroyFallbackEdge.exit12
  %76 = load ptr, ptr getelementptr inbounds nuw (i8, ptr @_glfw, i64 137528), align 8, !tbaa !136
  %77 = load ptr, ptr getelementptr inbounds nuw (i8, ptr @_glfw, i64 137520), align 8, !tbaa !93
  %78 = tail call i32 %77(ptr noundef nonnull %74) #20
  %79 = tail call ptr (ptr, i32, ptr, i32, i32, ...) %76(ptr noundef nonnull %74, i32 noundef 0, ptr noundef null, i32 noundef %78, i32 noundef 1) #20
  br label %80

80:                                               ; preds = %75, %destroyFallbackEdge.exit12
  %81 = load ptr, ptr %72, align 8, !tbaa !262
  %.not11.i14 = icmp eq ptr %81, null
  br i1 %.not11.i14, label %87, label %82

82:                                               ; preds = %80
  %83 = load ptr, ptr getelementptr inbounds nuw (i8, ptr @_glfw, i64 137528), align 8, !tbaa !136
  %84 = load ptr, ptr getelementptr inbounds nuw (i8, ptr @_glfw, i64 137520), align 8, !tbaa !93
  %85 = tail call i32 %84(ptr noundef nonnull %81) #20
  %86 = tail call ptr (ptr, i32, ptr, i32, i32, ...) %83(ptr noundef nonnull %81, i32 noundef 0, ptr noundef null, i32 noundef %85, i32 noundef 1) #20
  br label %87

87:                                               ; preds = %82, %80
  %88 = getelementptr inbounds nuw i8, ptr %0, i64 1224
  %89 = load ptr, ptr %88, align 8, !tbaa !263
  %.not12.i15 = icmp eq ptr %89, null
  br i1 %.not12.i15, label %destroyFallbackEdge.exit16, label %90

90:                                               ; preds = %87
  %91 = load ptr, ptr getelementptr inbounds nuw (i8, ptr @_glfw, i64 137528), align 8, !tbaa !136
  %92 = load ptr, ptr getelementptr inbounds nuw (i8, ptr @_glfw, i64 137520), align 8, !tbaa !93
  %93 = tail call i32 %92(ptr noundef nonnull %89) #20
  %94 = tail call ptr (ptr, i32, ptr, i32, i32, ...) %91(ptr noundef nonnull %89, i32 noundef 0, ptr noundef null, i32 noundef %93, i32 noundef 1) #20
  br label %destroyFallbackEdge.exit16

destroyFallbackEdge.exit16:                       ; preds = %87, %90
  tail call void @llvm.memset.p0.i64(ptr noundef nonnull align 8 dereferenceable(24) %72, i8 0, i64 24, i1 false)
  ret void
}